target datalayout = "e-m:e-p270:32:32-p271:32:32-p272:64:64-i64:64-i128:128-f80:128-n8:16:32:64-S128"
target triple = "x86_64-pc-linux-gnu"

%struct.AVCodecContext = type { ptr, i32, i32, ptr, i32, i32, ptr, ptr, ptr, i64, i32, i32, ptr, i32, %struct.AVRational, %struct.AVRational, %struct.AVRational, i32, i32, i32, i32, i32, %struct.AVRational, i32, i32, i32, i32, i32, i32, i32, i32, i32, i32, i32, ptr, ptr, i32, float, float, float, float, float, float, float, float, float, i32, i32, i32, i32, i32, i32, i32, i32, i32, i32, i32, i32, ptr, ptr, ptr, i32, i32, i32, i32, i32, i32, i32, i32, i32, i32, %struct.AVChannelLayout, i32, i32, i32, i32, i32, i32, i32, i32, ptr, i32, i32, i32, float, float, i32, i32, i32, i32, i32, ptr, i64, i64, float, float, i32, i32, ptr, ptr, i32, i32, i32, i32, i32, ptr, ptr, ptr, ptr, i32, i32, [8 x i64], i32, i32, i32, i32, i32, i32, i32, ptr, ptr, i32, i32, i32, i32, i32, i32, i32, i32, i32, i32, ptr, ptr, i32, i32, ptr, ptr, ptr, ptr, i32, i32, i64, i32, i32, i64, ptr, i64, ptr, i32, ptr, i32 }
%struct.AVRational = type { i32, i32 }
%struct.AVChannelLayout = type { i32, i32, %union.anon.0, ptr }
%union.anon.0 = type { i64 }
%struct.WmallDecodeCtx = type { ptr, ptr, %struct.LLAudDSPContext, ptr, i32, %struct.PutBitContext, i32, i32, i32, i8, i16, i16, i8, i8, i8, i8, i8, i16, %struct.GetBitContext, i32, i8, i8, i32, i32, i32, i8, i8, i32, %struct.GetBitContext, i32, [8 x ptr], [8 x ptr], i8, i8, i8, i16, i8, [8 x i8], [8 x %struct.WmallChannelCtx], i8, i8, i8, i8, i8, i8, i8, [16 x i16], [8 x [16 x i32]], i8, i8, [2048 x i16], [64 x i16], [512 x i32], [512 x i32], i32, i32, i32, [8 x [9 x %struct.anon]], [8 x i32], i32, [8 x i32], [8 x i32], [8 x i32], [8 x i32], i32, [8 x i32], [8 x [16384 x i32]], [8 x [40 x i32]], i32, i32, i32, [12 x i8] }
%struct.LLAudDSPContext = type { ptr, ptr }
%struct.PutBitContext = type { i32, i32, ptr, ptr, ptr }
%struct.GetBitContext = type { ptr, ptr, i32, i32, i32 }
%struct.WmallChannelCtx = type { i16, i8, i8, [32 x i16], [32 x i16], i8, i16, i32, i32 }
%struct.anon = type { i32, i32, i32, i32, [264 x i16], [520 x i32], [520 x i16], i32, [12 x i8] }
%struct.AVFrame = type { [8 x ptr], [8 x i32], ptr, i32, i32, i32, i32, i32, %struct.AVRational, i64, i64, %struct.AVRational, i32, ptr, i32, i32, [8 x ptr], ptr, i32, ptr, i32, i32, i32, i32, i32, i32, i32, i64, ptr, i32, ptr, ptr, i64, i64, i64, i64, ptr, %struct.AVChannelLayout, i64 }

; Function Attrs: inlinehint nounwind uwtable
define internal void @init_put_bits(ptr noundef %0, ptr noundef %1, i32 noundef %2) #5 {
  %4 = alloca ptr, align 8
  %5 = alloca ptr, align 8
  %6 = alloca i32, align 4
  store ptr %0, ptr %4, align 8, !tbaa !95
  store ptr %1, ptr %5, align 8, !tbaa !32
  store i32 %2, ptr %6, align 4, !tbaa !43
  %7 = load i32, ptr %6, align 4, !tbaa !43
  %8 = icmp slt i32 %7, 0
  br i1 %8, label %9, label %10

9:                                                ; preds = %3
  store i32 0, ptr %6, align 4, !tbaa !43
  store ptr null, ptr %5, align 8, !tbaa !32
  br label %10

10:                                               ; preds = %9, %3
  %11 = load ptr, ptr %5, align 8, !tbaa !32
  %12 = load ptr, ptr %4, align 8, !tbaa !95
  %13 = getelementptr inbounds nuw %struct.PutBitContext, ptr %12, i32 0, i32 2
  store ptr %11, ptr %13, align 8, !tbaa !97
  %14 = load ptr, ptr %4, align 8, !tbaa !95
  %15 = getelementptr inbounds nuw %struct.PutBitContext, ptr %14, i32 0, i32 2
  %16 = load ptr, ptr %15, align 8, !tbaa !97
  %17 = load i32, ptr %6, align 4, !tbaa !43
  %18 = sext i32 %17 to i64
  %19 = getelementptr inbounds i8, ptr %16, i64 %18
  %20 = load ptr, ptr %4, align 8, !tbaa !95
  %21 = getelementptr inbounds nuw %struct.PutBitContext, ptr %20, i32 0, i32 4
  store ptr %19, ptr %21, align 8, !tbaa !98
  %22 = load ptr, ptr %4, align 8, !tbaa !95
  %23 = getelementptr inbounds nuw %struct.PutBitContext, ptr %22, i32 0, i32 2
  %24 = load ptr, ptr %23, align 8, !tbaa !97
  %25 = load ptr, ptr %4, align 8, !tbaa !95
  %26 = getelementptr inbounds nuw %struct.PutBitContext, ptr %25, i32 0, i32 3
  store ptr %24, ptr %26, align 8, !tbaa !99
  %27 = load ptr, ptr %4, align 8, !tbaa !95
  %28 = getelementptr inbounds nuw %struct.PutBitContext, ptr %27, i32 0, i32 1
  store i32 32, ptr %28, align 4, !tbaa !100
  %29 = load ptr, ptr %4, align 8, !tbaa !95
  %30 = getelementptr inbounds nuw %struct.PutBitContext, ptr %29, i32 0, i32 0
  store i32 0, ptr %30, align 8, !tbaa !101
  ret void
}

; Function Attrs: nounwind uwtable
define internal void @flush(ptr noundef %0) #1 {
  %2 = alloca ptr, align 8
  %3 = alloca ptr, align 8
  store ptr %0, ptr %2, align 8, !tbaa !4
  call void @llvm.lifetime.start.p0(i64 8, ptr %3) #11
  %4 = load ptr, ptr %2, align 8, !tbaa !4
  %5 = getelementptr inbounds nuw %struct.AVCodecContext, ptr %4, i32 0, i32 6
  %6 = load ptr, ptr %5, align 8, !tbaa !9
  store ptr %6, ptr %3, align 8, !tbaa !29
  %7 = load ptr, ptr %3, align 8, !tbaa !29
  %8 = getelementptr inbounds nuw %struct.WmallDecodeCtx, ptr %7, i32 0, i32 25
  store i8 1, ptr %8, align 4, !tbaa !58
  %9 = load ptr, ptr %3, align 8, !tbaa !29
  %10 = getelementptr inbounds nuw %struct.WmallDecodeCtx, ptr %9, i32 0, i32 26
  store i8 0, ptr %10, align 1, !tbaa !86
  %11 = load ptr, ptr %3, align 8, !tbaa !29
  %12 = getelementptr inbounds nuw %struct.WmallDecodeCtx, ptr %11, i32 0, i32 22
  store i32 0, ptr %12, align 8, !tbaa !87
  %13 = load ptr, ptr %3, align 8, !tbaa !29
  %14 = getelementptr inbounds nuw %struct.WmallDecodeCtx, ptr %13, i32 0, i32 23
  store i32 0, ptr %14, align 4, !tbaa !91
  %15 = load ptr, ptr %3, align 8, !tbaa !29
  %16 = getelementptr inbounds nuw %struct.WmallDecodeCtx, ptr %15, i32 0, i32 19
  store i32 0, ptr %16, align 16, !tbaa !88
  %17 = load ptr, ptr %3, align 8, !tbaa !29
  %18 = getelementptr inbounds nuw %struct.WmallDecodeCtx, ptr %17, i32 0, i32 57
  %19 = getelementptr inbounds [8 x [9 x %struct.anon]], ptr %18, i64 0, i64 0
  %20 = getelementptr inbounds [9 x %struct.anon], ptr %19, i64 0, i64 0
  %21 = getelementptr inbounds nuw %struct.anon, ptr %20, i32 0, i32 0
  store i32 0, ptr %21, align 16, !tbaa !93
  %22 = load ptr, ptr %3, align 8, !tbaa !29
  %23 = getelementptr inbounds nuw %struct.WmallDecodeCtx, ptr %22, i32 0, i32 1
  %24 = load ptr, ptr %23, align 8, !tbaa !71
  %25 = getelementptr inbounds nuw %struct.AVFrame, ptr %24, i32 0, i32 5
  store i32 0, ptr %25, align 8, !tbaa !81
  %26 = load ptr, ptr %3, align 8, !tbaa !29
  %27 = getelementptr inbounds nuw %struct.WmallDecodeCtx, ptr %26, i32 0, i32 5
  %28 = load ptr, ptr %3, align 8, !tbaa !29
  %29 = getelementptr inbounds nuw %struct.WmallDecodeCtx, ptr %28, i32 0, i32 3
  %30 = load ptr, ptr %29, align 16, !tbaa !54
  %31 = load ptr, ptr %3, align 8, !tbaa !29
  %32 = getelementptr inbounds nuw %struct.WmallDecodeCtx, ptr %31, i32 0, i32 4
  %33 = load i32, ptr %32, align 8, !tbaa !53
  call void @init_put_bits(ptr noundef %27, ptr noundef %30, i32 noundef %33)
  call void @llvm.lifetime.end.p0(i64 8, ptr %3) #11
  ret void
}