; Function Attrs: mustprogress nofree norecurse nosync nounwind willreturn memory(readwrite, inaccessiblemem: none) uwtable
define internal void @flush(ptr noundef readonly captures(none) %0) #2 {
  %2 = getelementptr inbounds nuw i8, ptr %0, i64 32
  %3 = load ptr, ptr %2, align 8, !tbaa !4
  %4 = getelementptr inbounds nuw i8, ptr %3, i64 164
  store i8 1, ptr %4, align 4, !tbaa !57
  %5 = getelementptr inbounds nuw i8, ptr %3, i64 165
  store i8 0, ptr %5, align 1, !tbaa !79
  %6 = getelementptr inbounds nuw i8, ptr %3, i64 152
  store i32 0, ptr %6, align 8, !tbaa !80
  %7 = getelementptr inbounds nuw i8, ptr %3, i64 156
  store i32 0, ptr %7, align 4, !tbaa !90
  %8 = getelementptr inbounds nuw i8, ptr %3, i64 144
  store i32 0, ptr %8, align 16, !tbaa !82
  %9 = getelementptr inbounds nuw i8, ptr %3, i64 10400
  store i32 0, ptr %9, align 16, !tbaa !91
  %10 = getelementptr inbounds nuw i8, ptr %3, i64 8
  %11 = load ptr, ptr %10, align 8, !tbaa !70
  %12 = getelementptr inbounds nuw i8, ptr %11, i64 112
  store i32 0, ptr %12, align 8, !tbaa !74
  %13 = getelementptr inbounds nuw i8, ptr %3, i64 48
  %14 = getelementptr inbounds nuw i8, ptr %3, i64 32
  %15 = load ptr, ptr %14, align 16, !tbaa !48
  %16 = getelementptr inbounds nuw i8, ptr %3, i64 40
  %17 = load i32, ptr %16, align 8, !tbaa !47
  %18 = icmp slt i32 %17, 0
  %spec.select.i = select i1 %18, ptr null, ptr %15
  %spec.select11.i = tail call i32 @llvm.smax.i32(i32 %17, i32 0)
  %19 = getelementptr inbounds nuw i8, ptr %3, i64 56
  store ptr %spec.select.i, ptr %19, align 8, !tbaa !50
  %20 = zext nneg i32 %spec.select11.i to i64
  %21 = getelementptr inbounds nuw i8, ptr %spec.select.i, i64 %20
  %22 = getelementptr inbounds nuw i8, ptr %3, i64 72
  store ptr %21, ptr %22, align 8, !tbaa !51
  %23 = getelementptr inbounds nuw i8, ptr %3, i64 64
  store ptr %spec.select.i, ptr %23, align 8, !tbaa !52
  %24 = getelementptr inbounds nuw i8, ptr %3, i64 52
  store i32 32, ptr %24, align 4, !tbaa !53
  store i32 0, ptr %13, align 8, !tbaa !54
  ret void
}